; Function Attrs: mustprogress nofree nounwind willreturn memory(read, inaccessiblemem: none) uwtable
define internal noundef zeroext i1 @_ZN11OpenImageIO6v3_1_012_GLOBAL__N_114ChanNameHolder11compare_cnhERKS2_S4_(ptr noundef nonnull readonly align 8 captures(none) dereferenceable(76) %0, ptr noundef nonnull readonly align 8 captures(none) dereferenceable(76) %1) #15 align 2 personality ptr @__gxx_personality_v0 {
  %3 = getelementptr inbounds nuw i8, ptr %0, i64 24
  %4 = load i64, ptr %3, align 8, !tbaa !89
  %5 = getelementptr inbounds nuw i8, ptr %1, i64 24
  %6 = load i64, ptr %5, align 8, !tbaa !89
  %7 = tail call i64 @llvm.umin.i64(i64 %6, i64 %4)
  %8 = icmp eq i64 %7, 0
  br i1 %8, label %_ZN11OpenImageIO6v3_1_0ltENS0_17basic_string_viewIcSt11char_traitsIcEEES4_.exit, label %_ZNSt11char_traitsIcE7compareEPKcS2_m.exit.i.i

_ZNSt11char_traitsIcE7compareEPKcS2_m.exit.i.i:   ; preds = %2
  %9 = getelementptr inbounds nuw i8, ptr %1, i64 16
  %10 = load ptr, ptr %9, align 8, !tbaa !91
  %11 = getelementptr inbounds nuw i8, ptr %0, i64 16
  %12 = load ptr, ptr %11, align 8, !tbaa !91
  %13 = tail call i32 @memcmp(ptr noundef %12, ptr noundef %10, i64 noundef %7) #32
  %.not.i.i = icmp eq i32 %13, 0
  br i1 %.not.i.i, label %_ZN11OpenImageIO6v3_1_0ltENS0_17basic_string_viewIcSt11char_traitsIcEEES4_.exit.thread30, label %_ZN11OpenImageIO6v3_1_0ltENS0_17basic_string_viewIcSt11char_traitsIcEEES4_.exit.thread

_ZN11OpenImageIO6v3_1_0ltENS0_17basic_string_viewIcSt11char_traitsIcEEES4_.exit: ; preds = %2
  %14 = trunc i64 %4 to i32
  %15 = trunc i64 %6 to i32
  %16 = icmp slt i32 %14, %15
  br i1 %16, label %_ZN11OpenImageIO6v3_1_0gtENS0_17basic_string_viewIcSt11char_traitsIcEEES4_.exit.thread, label %_ZN11OpenImageIO6v3_1_0gtENS0_17basic_string_viewIcSt11char_traitsIcEEES4_.exit

_ZN11OpenImageIO6v3_1_0ltENS0_17basic_string_viewIcSt11char_traitsIcEEES4_.exit.thread30: ; preds = %_ZNSt11char_traitsIcE7compareEPKcS2_m.exit.i.i
  %17 = trunc i64 %4 to i32
  %18 = trunc i64 %6 to i32
  %19 = icmp slt i32 %17, %18
  br i1 %19, label %_ZN11OpenImageIO6v3_1_0gtENS0_17basic_string_viewIcSt11char_traitsIcEEES4_.exit.thread, label %_ZNSt11char_traitsIcE7compareEPKcS2_m.exit.i.i13._ZNSt11char_traitsIcE7compareEPKcS2_m.exit.thread.i.i15_crit_edge

_ZN11OpenImageIO6v3_1_0ltENS0_17basic_string_viewIcSt11char_traitsIcEEES4_.exit.thread: ; preds = %_ZNSt11char_traitsIcE7compareEPKcS2_m.exit.i.i
  %20 = icmp slt i32 %13, 0
  br label %_ZN11OpenImageIO6v3_1_0gtENS0_17basic_string_viewIcSt11char_traitsIcEEES4_.exit.thread

_ZNSt11char_traitsIcE7compareEPKcS2_m.exit.i.i13._ZNSt11char_traitsIcE7compareEPKcS2_m.exit.thread.i.i15_crit_edge: ; preds = %_ZN11OpenImageIO6v3_1_0ltENS0_17basic_string_viewIcSt11char_traitsIcEEES4_.exit.thread30
  %.pre = trunc i64 %4 to i32
  %.pre32 = trunc i64 %6 to i32
  br label %_ZN11OpenImageIO6v3_1_0gtENS0_17basic_string_viewIcSt11char_traitsIcEEES4_.exit

_ZN11OpenImageIO6v3_1_0gtENS0_17basic_string_viewIcSt11char_traitsIcEEES4_.exit: ; preds = %_ZN11OpenImageIO6v3_1_0ltENS0_17basic_string_viewIcSt11char_traitsIcEEES4_.exit, %_ZNSt11char_traitsIcE7compareEPKcS2_m.exit.i.i13._ZNSt11char_traitsIcE7compareEPKcS2_m.exit.thread.i.i15_crit_edge
  %.pre-phi33 = phi i32 [ %.pre32, %_ZNSt11char_traitsIcE7compareEPKcS2_m.exit.i.i13._ZNSt11char_traitsIcE7compareEPKcS2_m.exit.thread.i.i15_crit_edge ], [ %15, %_ZN11OpenImageIO6v3_1_0ltENS0_17basic_string_viewIcSt11char_traitsIcEEES4_.exit ]
  %.pre-phi = phi i32 [ %.pre, %_ZNSt11char_traitsIcE7compareEPKcS2_m.exit.i.i13._ZNSt11char_traitsIcE7compareEPKcS2_m.exit.thread.i.i15_crit_edge ], [ %14, %_ZN11OpenImageIO6v3_1_0ltENS0_17basic_string_viewIcSt11char_traitsIcEEES4_.exit ]
  %21 = icmp sgt i32 %.pre-phi, %.pre-phi33
  br i1 %21, label %_ZN11OpenImageIO6v3_1_0gtENS0_17basic_string_viewIcSt11char_traitsIcEEES4_.exit.thread, label %22

22:                                               ; preds = %_ZN11OpenImageIO6v3_1_0gtENS0_17basic_string_viewIcSt11char_traitsIcEEES4_.exit
  %23 = getelementptr inbounds nuw i8, ptr %0, i64 52
  %24 = load i32, ptr %23, align 4, !tbaa !285
  %25 = getelementptr inbounds nuw i8, ptr %1, i64 52
  %26 = load i32, ptr %25, align 4, !tbaa !285
  %27 = icmp slt i32 %24, %26
  br i1 %27, label %_ZN11OpenImageIO6v3_1_0gtENS0_17basic_string_viewIcSt11char_traitsIcEEES4_.exit.thread, label %28

28:                                               ; preds = %22
  %29 = icmp sgt i32 %24, %26
  br i1 %29, label %_ZN11OpenImageIO6v3_1_0gtENS0_17basic_string_viewIcSt11char_traitsIcEEES4_.exit.thread, label %30

30:                                               ; preds = %28
  %31 = getelementptr inbounds nuw i8, ptr %0, i64 40
  %32 = load i64, ptr %31, align 8, !tbaa !89
  %33 = getelementptr inbounds nuw i8, ptr %1, i64 40
  %34 = load i64, ptr %33, align 8, !tbaa !89
  %35 = tail call i64 @llvm.umin.i64(i64 %34, i64 %32)
  %36 = icmp eq i64 %35, 0
  br i1 %36, label %_ZNSt11char_traitsIcE7compareEPKcS2_m.exit.thread.i.i18, label %_ZNSt11char_traitsIcE7compareEPKcS2_m.exit.i.i16

_ZNSt11char_traitsIcE7compareEPKcS2_m.exit.i.i16: ; preds = %30
  %37 = getelementptr inbounds nuw i8, ptr %1, i64 32
  %38 = load ptr, ptr %37, align 8, !tbaa !91
  %39 = getelementptr inbounds nuw i8, ptr %0, i64 32
  %40 = load ptr, ptr %39, align 8, !tbaa !91
  %41 = tail call i32 @memcmp(ptr noundef %40, ptr noundef %38, i64 noundef %35) #32
  %.not.i.i17 = icmp eq i32 %41, 0
  br i1 %.not.i.i17, label %_ZNSt11char_traitsIcE7compareEPKcS2_m.exit.thread.i.i18, label %_ZN11OpenImageIO6v3_1_0ltENS0_17basic_string_viewIcSt11char_traitsIcEEES4_.exit19

_ZNSt11char_traitsIcE7compareEPKcS2_m.exit.thread.i.i18: ; preds = %_ZNSt11char_traitsIcE7compareEPKcS2_m.exit.i.i16, %30
  %42 = trunc i64 %32 to i32
  %43 = trunc i64 %34 to i32
  %44 = sub nsw i32 %42, %43
  br label %_ZN11OpenImageIO6v3_1_0ltENS0_17basic_string_viewIcSt11char_traitsIcEEES4_.exit19

_ZN11OpenImageIO6v3_1_0ltENS0_17basic_string_viewIcSt11char_traitsIcEEES4_.exit19: ; preds = %_ZNSt11char_traitsIcE7compareEPKcS2_m.exit.i.i16, %_ZNSt11char_traitsIcE7compareEPKcS2_m.exit.thread.i.i18
  %45 = phi i32 [ %44, %_ZNSt11char_traitsIcE7compareEPKcS2_m.exit.thread.i.i18 ], [ %41, %_ZNSt11char_traitsIcE7compareEPKcS2_m.exit.i.i16 ]
  %46 = icmp slt i32 %45, 0
  br label %_ZN11OpenImageIO6v3_1_0gtENS0_17basic_string_viewIcSt11char_traitsIcEEES4_.exit.thread

_ZN11OpenImageIO6v3_1_0gtENS0_17basic_string_viewIcSt11char_traitsIcEEES4_.exit.thread: ; preds = %_ZN11OpenImageIO6v3_1_0ltENS0_17basic_string_viewIcSt11char_traitsIcEEES4_.exit.thread, %_ZN11OpenImageIO6v3_1_0ltENS0_17basic_string_viewIcSt11char_traitsIcEEES4_.exit.thread30, %28, %22, %_ZN11OpenImageIO6v3_1_0gtENS0_17basic_string_viewIcSt11char_traitsIcEEES4_.exit, %_ZN11OpenImageIO6v3_1_0ltENS0_17basic_string_viewIcSt11char_traitsIcEEES4_.exit, %_ZN11OpenImageIO6v3_1_0ltENS0_17basic_string_viewIcSt11char_traitsIcEEES4_.exit19
  %.0 = phi i1 [ %46, %_ZN11OpenImageIO6v3_1_0ltENS0_17basic_string_viewIcSt11char_traitsIcEEES4_.exit19 ], [ true, %_ZN11OpenImageIO6v3_1_0ltENS0_17basic_string_viewIcSt11char_traitsIcEEES4_.exit ], [ false, %_ZN11OpenImageIO6v3_1_0gtENS0_17basic_string_viewIcSt11char_traitsIcEEES4_.exit ], [ true, %22 ], [ false, %28 ], [ true, %_ZN11OpenImageIO6v3_1_0ltENS0_17basic_string_viewIcSt11char_traitsIcEEES4_.exit.thread30 ], [ %20, %_ZN11OpenImageIO6v3_1_0ltENS0_17basic_string_viewIcSt11char_traitsIcEEES4_.exit.thread ]
  ret i1 %.0
}